target datalayout = "e-m:e-p270:32:32-p271:32:32-p272:64:64-i64:64-i128:128-f80:128-n8:16:32:64-S128"
target triple = "x86_64-pc-linux-gnu"

%struct.HTable = type { i32, ptr }
%struct.SEntry2_ = type { ptr, ptr, ptr }

; Function Attrs: nounwind uwtable
define dso_local ptr @htable_get(ptr noundef %0, ptr noundef %1) #0 {
  %3 = alloca ptr, align 8
  %4 = alloca ptr, align 8
  %5 = alloca ptr, align 8
  %6 = alloca i32, align 4
  %7 = alloca ptr, align 8
  store ptr %0, ptr %4, align 8
  store ptr %1, ptr %5, align 8
  %8 = load ptr, ptr %5, align 8
  %9 = ptrtoint ptr %8 to i64
  %10 = load ptr, ptr %5, align 8
  %11 = ptrtoint ptr %10 to i64
  %12 = lshr i64 %11, 8
  %13 = xor i64 %9, %12
  %14 = load ptr, ptr %4, align 8
  %15 = getelementptr inbounds %struct.HTable, ptr %14, i32 0, i32 0
  %16 = load i32, ptr %15, align 8
  %17 = zext i32 %16 to i64
  %18 = and i64 %13, %17
  %19 = trunc i64 %18 to i32
  store i32 %19, ptr %6, align 4
  %20 = load ptr, ptr %4, align 8
  %21 = getelementptr inbounds %struct.HTable, ptr %20, i32 0, i32 1
  %22 = load ptr, ptr %21, align 8
  %23 = load i32, ptr %6, align 4
  %24 = zext i32 %23 to i64
  %25 = getelementptr inbounds ptr, ptr %22, i64 %24
  %26 = load ptr, ptr %25, align 8
  store ptr %26, ptr %7, align 8
  %27 = load ptr, ptr %7, align 8
  %28 = icmp ne ptr %27, null
  br i1 %28, label %30, label %29

29:                                               ; preds = %2
  store ptr null, ptr %3, align 8
  br label %49

30:                                               ; preds = %2
  br label %31

31:                                               ; preds = %45, %30
  %32 = load ptr, ptr %7, align 8
  %33 = getelementptr inbounds %struct.SEntry2_, ptr %32, i32 0, i32 0
  %34 = load ptr, ptr %33, align 8
  %35 = load ptr, ptr %5, align 8
  %36 = icmp eq ptr %34, %35
  br i1 %36, label %37, label %41

37:                                               ; preds = %31
  %38 = load ptr, ptr %7, align 8
  %39 = getelementptr inbounds %struct.SEntry2_, ptr %38, i32 0, i32 1
  %40 = load ptr, ptr %39, align 8
  store ptr %40, ptr %3, align 8
  br label %49

41:                                               ; preds = %31
  %42 = load ptr, ptr %7, align 8
  %43 = getelementptr inbounds %struct.SEntry2_, ptr %42, i32 0, i32 2
  %44 = load ptr, ptr %43, align 8
  store ptr %44, ptr %7, align 8
  br label %45

45:                                               ; preds = %41
  %46 = load ptr, ptr %7, align 8
  %47 = icmp ne ptr %46, null
  br i1 %47, label %31, label %48, !llvm.loop !20

48:                                               ; preds = %45
  store ptr null, ptr %3, align 8
  br label %49

49:                                               ; preds = %48, %37, %29
  %50 = load ptr, ptr %3, align 8
  ret ptr %50
}