; Function Attrs: nofree norecurse nosync nounwind memory(read, inaccessiblemem: none) uwtable
define dso_local ptr @htable_get(ptr nocapture noundef readonly %0, ptr noundef %1) local_unnamed_addr #9 {
  %3 = ptrtoint ptr %1 to i64
  %4 = lshr i64 %3, 8
  %5 = xor i64 %4, %3
  %6 = load i32, ptr %0, align 8
  %7 = trunc i64 %5 to i32
  %8 = and i32 %6, %7
  %9 = getelementptr inbounds i8, ptr %0, i64 8
  %10 = load ptr, ptr %9, align 8
  %11 = zext i32 %8 to i64
  %12 = getelementptr inbounds ptr, ptr %10, i64 %11
  %13 = load ptr, ptr %12, align 8
  %.not = icmp eq ptr %13, null
  br i1 %.not, label %.loopexit, label %.preheader

.preheader:                                       ; preds = %2, %19
  %.0 = phi ptr [ %21, %19 ], [ %13, %2 ]
  %14 = load ptr, ptr %.0, align 8
  %15 = icmp eq ptr %14, %1
  br i1 %15, label %16, label %19

16:                                               ; preds = %.preheader
  %17 = getelementptr inbounds i8, ptr %.0, i64 8
  %18 = load ptr, ptr %17, align 8
  br label %.loopexit

19:                                               ; preds = %.preheader
  %20 = getelementptr inbounds i8, ptr %.0, i64 16
  %21 = load ptr, ptr %20, align 8
  %.not14 = icmp eq ptr %21, null
  br i1 %.not14, label %.loopexit, label %.preheader, !llvm.loop !14

.loopexit:                                        ; preds = %19, %2, %16
  %.011 = phi ptr [ %18, %16 ], [ null, %2 ], [ null, %19 ]
  ret ptr %.011
}